; Function Attrs: mustprogress nounwind uwtable
define internal noundef zeroext i1 @_ZN6hermes12_GLOBAL__N_112DumpFunction13runOnFunctionEPNS_8FunctionE(ptr nocapture noundef nonnull readonly align 8 dereferenceable(56) %this, ptr noundef %F) unnamed_addr #1 align 2 {
entry:
  %cgSettings_ = getelementptr inbounds i8, ptr %this, i64 32
  %0 = load ptr, ptr %cgSettings_, align 8
  %dumpBefore = getelementptr inbounds i8, ptr %0, i64 16
  tail call fastcc void @_ZNK6hermes12_GLOBAL__N_112DumpFunction13dumpIfEnabledEPNS_8FunctionERKNS_35CodeGenerationSettings_DumpSettingsEN4llvh9StringRefE(ptr noundef nonnull align 8 dereferenceable(56) %this, ptr noundef %F, ptr noundef nonnull align 8 dereferenceable(152) %dumpBefore, ptr nonnull @.str.8, i64 24)
  %pass_ = getelementptr inbounds i8, ptr %this, i64 48
  %1 = load ptr, ptr %pass_, align 8
  %vtable = load ptr, ptr %1, align 8
  %vfn = getelementptr inbounds i8, ptr %vtable, i64 16
  %2 = load ptr, ptr %vfn, align 8
  %call2 = tail call noundef zeroext i1 %2(ptr noundef nonnull align 8 dereferenceable(32) %1, ptr noundef %F) #14
  %3 = load ptr, ptr %cgSettings_, align 8
  %dumpAfter = getelementptr inbounds i8, ptr %3, i64 168
  tail call fastcc void @_ZNK6hermes12_GLOBAL__N_112DumpFunction13dumpIfEnabledEPNS_8FunctionERKNS_35CodeGenerationSettings_DumpSettingsEN4llvh9StringRefE(ptr noundef nonnull align 8 dereferenceable(56) %this, ptr noundef %F, ptr noundef nonnull align 8 dereferenceable(152) %dumpAfter, ptr nonnull @.str.9, i64 23)
  ret i1 %call2
}